; Function Attrs: mustprogress uwtable
define void @_ZN5Ipopt17MultiVectorMatrix9SetVectorEiRKNS_6VectorE(ptr noundef nonnull align 8 dereferenceable(128) %0, i32 noundef %1, ptr noundef nonnull align 8 dereferenceable(205) %2) local_unnamed_addr #4 align 2 {
  %4 = getelementptr inbounds nuw i8, ptr %0, i64 104
  %5 = sext i32 %1 to i64
  %6 = load ptr, ptr %4, align 8, !tbaa !24
  %7 = getelementptr inbounds nuw %"class.Ipopt::SmartPtr.11", ptr %6, i64 %5
  %8 = load ptr, ptr %7, align 8, !tbaa !28
  %.not.i.i.i = icmp eq ptr %8, null
  br i1 %.not.i.i.i, label %_ZN5Ipopt8SmartPtrINS_6VectorEEaSEPS1_.exit, label %9

9:                                                ; preds = %3
  %10 = getelementptr inbounds nuw i8, ptr %8, i64 8
  %11 = load i32, ptr %10, align 8, !tbaa !13
  %12 = add nsw i32 %11, -1
  store i32 %12, ptr %10, align 8, !tbaa !13
  %13 = icmp eq i32 %12, 0
  br i1 %13, label %14, label %_ZN5Ipopt8SmartPtrINS_6VectorEEaSEPS1_.exit

14:                                               ; preds = %9
  %15 = load ptr, ptr %8, align 8, !tbaa !16
  %16 = getelementptr inbounds nuw i8, ptr %15, i64 8
  %17 = load ptr, ptr %16, align 8
  tail call void %17(ptr noundef nonnull align 8 dereferenceable(205) %8) #24
  br label %_ZN5Ipopt8SmartPtrINS_6VectorEEaSEPS1_.exit

_ZN5Ipopt8SmartPtrINS_6VectorEEaSEPS1_.exit:      ; preds = %3, %9, %14
  store ptr null, ptr %7, align 8, !tbaa !28
  %18 = getelementptr inbounds nuw i8, ptr %0, i64 80
  %19 = load ptr, ptr %18, align 8, !tbaa !3
  %20 = getelementptr inbounds nuw %"class.Ipopt::SmartPtr.12", ptr %19, i64 %5
  %21 = getelementptr inbounds nuw i8, ptr %2, i64 8
  %22 = load i32, ptr %21, align 8, !tbaa !13
  %23 = add nsw i32 %22, 1
  store i32 %23, ptr %21, align 8, !tbaa !13
  %24 = load ptr, ptr %20, align 8, !tbaa !10
  %.not.i.i.i3 = icmp eq ptr %24, null
  br i1 %.not.i.i.i3, label %_ZN5Ipopt8SmartPtrIKNS_6VectorEEaSEPS2_.exit, label %25

25:                                               ; preds = %_ZN5Ipopt8SmartPtrINS_6VectorEEaSEPS1_.exit
  %26 = getelementptr inbounds nuw i8, ptr %24, i64 8
  %27 = load i32, ptr %26, align 8, !tbaa !13
  %28 = add nsw i32 %27, -1
  store i32 %28, ptr %26, align 8, !tbaa !13
  %29 = icmp eq i32 %28, 0
  br i1 %29, label %30, label %_ZN5Ipopt8SmartPtrIKNS_6VectorEEaSEPS2_.exit

30:                                               ; preds = %25
  %31 = load ptr, ptr %24, align 8, !tbaa !16
  %32 = getelementptr inbounds nuw i8, ptr %31, i64 8
  %33 = load ptr, ptr %32, align 8
  tail call void %33(ptr noundef nonnull align 8 dereferenceable(205) %24) #24
  br label %_ZN5Ipopt8SmartPtrIKNS_6VectorEEaSEPS2_.exit

_ZN5Ipopt8SmartPtrIKNS_6VectorEEaSEPS2_.exit:     ; preds = %_ZN5Ipopt8SmartPtrINS_6VectorEEaSEPS1_.exit, %25, %30
  store ptr %2, ptr %20, align 8, !tbaa !10
  tail call void @_ZN5Ipopt12TaggedObject13ObjectChangedEv(ptr noundef nonnull align 8 dereferenceable(56) %0)
  ret void
}